target datalayout = "e-m:e-p270:32:32-p271:32:32-p272:64:64-i64:64-i128:128-f80:128-n8:16:32:64-S128"
target triple = "x86_64-pc-linux-gnu"

%struct.varatt_indirect = type { ptr }
%struct.varattrib_1b = type { i8, [0 x i8] }
%struct.varattrib_1b_e = type { i8, i8, [0 x i8] }
%struct.anon = type { i32, [0 x i8] }
%struct.toast_compress_header = type { i32, i32 }

@.str.1 = private unnamed_addr constant [10 x i8] c"detoast.c\00", align 1
@.str.4 = private unnamed_addr constant [33 x i8] c"invalid compression method id %d\00", align 1
@__func__.toast_decompress_datum = private unnamed_addr constant [23 x i8] c"toast_decompress_datum\00", align 1

; Function Attrs: nounwind uwtable
define internal ptr @toast_decompress_datum(ptr noundef %0) #0 {
  %2 = alloca ptr, align 8
  %3 = alloca ptr, align 8
  %4 = alloca i32, align 4
  %5 = alloca i32, align 4
  store ptr %0, ptr %3, align 8
  call void @llvm.lifetime.start.p0(i64 4, ptr %4) #7
  %6 = load ptr, ptr %3, align 8
  %7 = getelementptr inbounds nuw %struct.toast_compress_header, ptr %6, i32 0, i32 1
  %8 = load i32, ptr %7, align 4
  %9 = lshr i32 %8, 30
  store i32 %9, ptr %4, align 4
  %10 = load i32, ptr %4, align 4
  switch i32 %10, label %17 [
    i32 0, label %11
    i32 1, label %14
  ]

11:                                               ; preds = %1
  %12 = load ptr, ptr %3, align 8
  %13 = call ptr @pglz_decompress_datum(ptr noundef %12)
  store ptr %13, ptr %2, align 8
  store i32 1, ptr %5, align 4
  br label %29

14:                                               ; preds = %1
  %15 = load ptr, ptr %3, align 8
  %16 = call ptr @lz4_decompress_datum(ptr noundef %15)
  store ptr %16, ptr %2, align 8
  store i32 1, ptr %5, align 4
  br label %29

17:                                               ; preds = %1
  br label %18

18:                                               ; preds = %17
  br i1 true, label %19, label %21

19:                                               ; preds = %18
  %20 = call zeroext i1 @errstart_cold(i32 noundef 21, ptr noundef null) #8
  br i1 %20, label %23, label %26

21:                                               ; preds = %18
  %22 = call zeroext i1 @errstart(i32 noundef 21, ptr noundef null)
  br i1 %22, label %23, label %26

23:                                               ; preds = %21, %19
  %24 = load i32, ptr %4, align 4
  %25 = call i32 (ptr, ...) @errmsg_internal(ptr noundef @.str.4, i32 noundef %24)
  call void @errfinish(ptr noundef @.str.1, i32 noundef 489, ptr noundef @__func__.toast_decompress_datum)
  br label %26

26:                                               ; preds = %23, %21, %19
  unreachable

27:                                               ; No predecessors!
  br label %28

28:                                               ; preds = %27
  store ptr null, ptr %2, align 8
  store i32 1, ptr %5, align 4
  br label %29

29:                                               ; preds = %28, %14, %11
  call void @llvm.lifetime.end.p0(i64 4, ptr %4) #7
  %30 = load ptr, ptr %2, align 8
  ret ptr %30
}

; Function Attrs: nounwind uwtable
define dso_local ptr @detoast_attr(ptr noundef %0) #0 {
  %2 = alloca ptr, align 8
  %3 = alloca ptr, align 8
  %4 = alloca %struct.varatt_indirect, align 8
  %5 = alloca ptr, align 8
  %6 = alloca ptr, align 8
  %7 = alloca i64, align 8
  %8 = alloca i64, align 8
  %9 = alloca ptr, align 8
  store ptr %0, ptr %2, align 8
  %10 = load ptr, ptr %2, align 8
  %11 = getelementptr inbounds nuw %struct.varattrib_1b, ptr %10, i32 0, i32 0
  %12 = load i8, ptr %11, align 1
  %13 = zext i8 %12 to i32
  %14 = icmp eq i32 %13, 1
  br i1 %14, label %15, label %36

15:                                               ; preds = %1
  %16 = load ptr, ptr %2, align 8
  %17 = getelementptr inbounds nuw %struct.varattrib_1b_e, ptr %16, i32 0, i32 1
  %18 = load i8, ptr %17, align 1
  %19 = zext i8 %18 to i32
  %20 = icmp eq i32 %19, 18
  br i1 %20, label %21, label %36

21:                                               ; preds = %15
  %22 = load ptr, ptr %2, align 8
  %23 = call ptr @toast_fetch_datum(ptr noundef %22)
  store ptr %23, ptr %2, align 8
  %24 = load ptr, ptr %2, align 8
  %25 = getelementptr inbounds nuw %struct.varattrib_1b, ptr %24, i32 0, i32 0
  %26 = load i8, ptr %25, align 1
  %27 = zext i8 %26 to i32
  %28 = and i32 %27, 3
  %29 = icmp eq i32 %28, 2
  br i1 %29, label %30, label %35

30:                                               ; preds = %21
  call void @llvm.lifetime.start.p0(i64 8, ptr %3) #7
  %31 = load ptr, ptr %2, align 8
  store ptr %31, ptr %3, align 8
  %32 = load ptr, ptr %3, align 8
  %33 = call ptr @toast_decompress_datum(ptr noundef %32)
  store ptr %33, ptr %2, align 8
  %34 = load ptr, ptr %3, align 8
  call void @pfree(ptr noundef %34)
  call void @llvm.lifetime.end.p0(i64 8, ptr %3) #7
  br label %35

35:                                               ; preds = %30, %21
  br label %247

36:                                               ; preds = %15, %1
  %37 = load ptr, ptr %2, align 8
  %38 = getelementptr inbounds nuw %struct.varattrib_1b, ptr %37, i32 0, i32 0
  %39 = load i8, ptr %38, align 1
  %40 = zext i8 %39 to i32
  %41 = icmp eq i32 %40, 1
  br i1 %41, label %42, label %184

42:                                               ; preds = %36
  %43 = load ptr, ptr %2, align 8
  %44 = getelementptr inbounds nuw %struct.varattrib_1b_e, ptr %43, i32 0, i32 1
  %45 = load i8, ptr %44, align 1
  %46 = zext i8 %45 to i32
  %47 = icmp eq i32 %46, 1
  br i1 %47, label %48, label %184

48:                                               ; preds = %42
  call void @llvm.lifetime.start.p0(i64 8, ptr %4) #7
  br label %49

49:                                               ; preds = %48
  call void @llvm.lifetime.start.p0(i64 8, ptr %5) #7
  %50 = load ptr, ptr %2, align 8
  store ptr %50, ptr %5, align 8
  %51 = load ptr, ptr %5, align 8
  %52 = getelementptr inbounds nuw %struct.varattrib_1b_e, ptr %51, i32 0, i32 2
  %53 = getelementptr inbounds [0 x i8], ptr %52, i64 0, i64 0
  call void @llvm.memcpy.p0.p0.i64(ptr align 8 %4, ptr align 1 %53, i64 8, i1 false)
  call void @llvm.lifetime.end.p0(i64 8, ptr %5) #7
  br label %54

54:                                               ; preds = %49
  br label %55

55:                                               ; preds = %54
  %56 = getelementptr inbounds nuw %struct.varatt_indirect, ptr %4, i32 0, i32 0
  %57 = load ptr, ptr %56, align 8
  store ptr %57, ptr %2, align 8
  %58 = load ptr, ptr %2, align 8
  %59 = call ptr @detoast_attr(ptr noundef %58)
  store ptr %59, ptr %2, align 8
  %60 = load ptr, ptr %2, align 8
  %61 = getelementptr inbounds nuw %struct.varatt_indirect, ptr %4, i32 0, i32 0
  %62 = load ptr, ptr %61, align 8
  %63 = icmp eq ptr %60, %62
  br i1 %63, label %64, label %183

64:                                               ; preds = %55
  call void @llvm.lifetime.start.p0(i64 8, ptr %6) #7
  %65 = load ptr, ptr %2, align 8
  %66 = getelementptr inbounds nuw %struct.varattrib_1b, ptr %65, i32 0, i32 0
  %67 = load i8, ptr %66, align 1
  %68 = zext i8 %67 to i32
  %69 = icmp eq i32 %68, 1
  br i1 %69, label %70, label %97

70:                                               ; preds = %64
  %71 = load ptr, ptr %2, align 8
  %72 = getelementptr inbounds nuw %struct.varattrib_1b_e, ptr %71, i32 0, i32 1
  %73 = load i8, ptr %72, align 1
  %74 = zext i8 %73 to i32
  %75 = icmp eq i32 %74, 1
  br i1 %75, label %76, label %77

76:                                               ; preds = %70
  br label %94

77:                                               ; preds = %70
  %78 = load ptr, ptr %2, align 8
  %79 = getelementptr inbounds nuw %struct.varattrib_1b_e, ptr %78, i32 0, i32 1
  %80 = load i8, ptr %79, align 1
  %81 = zext i8 %80 to i32
  %82 = and i32 %81, -2
  %83 = icmp eq i32 %82, 2
  br i1 %83, label %84, label %85

84:                                               ; preds = %77
  br label %92

85:                                               ; preds = %77
  %86 = load ptr, ptr %2, align 8
  %87 = getelementptr inbounds nuw %struct.varattrib_1b_e, ptr %86, i32 0, i32 1
  %88 = load i8, ptr %87, align 1
  %89 = zext i8 %88 to i32
  %90 = icmp eq i32 %89, 18
  %91 = select i1 %90, i64 16, i64 0
  br label %92

92:                                               ; preds = %85, %84
  %93 = phi i64 [ 8, %84 ], [ %91, %85 ]
  br label %94

94:                                               ; preds = %92, %76
  %95 = phi i64 [ 8, %76 ], [ %93, %92 ]
  %96 = add i64 2, %95
  br label %120

97:                                               ; preds = %64
  %98 = load ptr, ptr %2, align 8
  %99 = getelementptr inbounds nuw %struct.varattrib_1b, ptr %98, i32 0, i32 0
  %100 = load i8, ptr %99, align 1
  %101 = zext i8 %100 to i32
  %102 = and i32 %101, 1
  %103 = icmp eq i32 %102, 1
  br i1 %103, label %104, label %111

104:                                              ; preds = %97
  %105 = load ptr, ptr %2, align 8
  %106 = getelementptr inbounds nuw %struct.varattrib_1b, ptr %105, i32 0, i32 0
  %107 = load i8, ptr %106, align 1
  %108 = zext i8 %107 to i32
  %109 = ashr i32 %108, 1
  %110 = and i32 %109, 127
  br label %117

111:                                              ; preds = %97
  %112 = load ptr, ptr %2, align 8
  %113 = getelementptr inbounds nuw %struct.anon, ptr %112, i32 0, i32 0
  %114 = load i32, ptr %113, align 4
  %115 = lshr i32 %114, 2
  %116 = and i32 %115, 1073741823
  br label %117

117:                                              ; preds = %111, %104
  %118 = phi i32 [ %110, %104 ], [ %116, %111 ]
  %119 = zext i32 %118 to i64
  br label %120

120:                                              ; preds = %117, %94
  %121 = phi i64 [ %96, %94 ], [ %119, %117 ]
  %122 = call ptr @palloc(i64 noundef %121)
  store ptr %122, ptr %6, align 8
  %123 = load ptr, ptr %6, align 8
  %124 = load ptr, ptr %2, align 8
  %125 = load ptr, ptr %2, align 8
  %126 = getelementptr inbounds nuw %struct.varattrib_1b, ptr %125, i32 0, i32 0
  %127 = load i8, ptr %126, align 1
  %128 = zext i8 %127 to i32
  %129 = icmp eq i32 %128, 1
  br i1 %129, label %130, label %157

130:                                              ; preds = %120
  %131 = load ptr, ptr %2, align 8
  %132 = getelementptr inbounds nuw %struct.varattrib_1b_e, ptr %131, i32 0, i32 1
  %133 = load i8, ptr %132, align 1
  %134 = zext i8 %133 to i32
  %135 = icmp eq i32 %134, 1
  br i1 %135, label %136, label %137

136:                                              ; preds = %130
  br label %154

137:                                              ; preds = %130
  %138 = load ptr, ptr %2, align 8
  %139 = getelementptr inbounds nuw %struct.varattrib_1b_e, ptr %138, i32 0, i32 1
  %140 = load i8, ptr %139, align 1
  %141 = zext i8 %140 to i32
  %142 = and i32 %141, -2
  %143 = icmp eq i32 %142, 2
  br i1 %143, label %144, label %145

144:                                              ; preds = %137
  br label %152

145:                                              ; preds = %137
  %146 = load ptr, ptr %2, align 8
  %147 = getelementptr inbounds nuw %struct.varattrib_1b_e, ptr %146, i32 0, i32 1
  %148 = load i8, ptr %147, align 1
  %149 = zext i8 %148 to i32
  %150 = icmp eq i32 %149, 18
  %151 = select i1 %150, i64 16, i64 0
  br label %152

152:                                              ; preds = %145, %144
  %153 = phi i64 [ 8, %144 ], [ %151, %145 ]
  br label %154

154:                                              ; preds = %152, %136
  %155 = phi i64 [ 8, %136 ], [ %153, %152 ]
  %156 = add i64 2, %155
  br label %180

157:                                              ; preds = %120
  %158 = load ptr, ptr %2, align 8
  %159 = getelementptr inbounds nuw %struct.varattrib_1b, ptr %158, i32 0, i32 0
  %160 = load i8, ptr %159, align 1
  %161 = zext i8 %160 to i32
  %162 = and i32 %161, 1
  %163 = icmp eq i32 %162, 1
  br i1 %163, label %164, label %171

164:                                              ; preds = %157
  %165 = load ptr, ptr %2, align 8
  %166 = getelementptr inbounds nuw %struct.varattrib_1b, ptr %165, i32 0, i32 0
  %167 = load i8, ptr %166, align 1
  %168 = zext i8 %167 to i32
  %169 = ashr i32 %168, 1
  %170 = and i32 %169, 127
  br label %177

171:                                              ; preds = %157
  %172 = load ptr, ptr %2, align 8
  %173 = getelementptr inbounds nuw %struct.anon, ptr %172, i32 0, i32 0
  %174 = load i32, ptr %173, align 4
  %175 = lshr i32 %174, 2
  %176 = and i32 %175, 1073741823
  br label %177

177:                                              ; preds = %171, %164
  %178 = phi i32 [ %170, %164 ], [ %176, %171 ]
  %179 = zext i32 %178 to i64
  br label %180

180:                                              ; preds = %177, %154
  %181 = phi i64 [ %156, %154 ], [ %179, %177 ]
  call void @llvm.memcpy.p0.p0.i64(ptr align 1 %123, ptr align 1 %124, i64 %181, i1 false)
  %182 = load ptr, ptr %6, align 8
  store ptr %182, ptr %2, align 8
  call void @llvm.lifetime.end.p0(i64 8, ptr %6) #7
  br label %183

183:                                              ; preds = %180, %55
  call void @llvm.lifetime.end.p0(i64 8, ptr %4) #7
  br label %246

184:                                              ; preds = %42, %36
  %185 = load ptr, ptr %2, align 8
  %186 = getelementptr inbounds nuw %struct.varattrib_1b, ptr %185, i32 0, i32 0
  %187 = load i8, ptr %186, align 1
  %188 = zext i8 %187 to i32
  %189 = icmp eq i32 %188, 1
  br i1 %189, label %190, label %200

190:                                              ; preds = %184
  %191 = load ptr, ptr %2, align 8
  %192 = getelementptr inbounds nuw %struct.varattrib_1b_e, ptr %191, i32 0, i32 1
  %193 = load i8, ptr %192, align 1
  %194 = zext i8 %193 to i32
  %195 = and i32 %194, -2
  %196 = icmp eq i32 %195, 2
  br i1 %196, label %197, label %200

197:                                              ; preds = %190
  %198 = load ptr, ptr %2, align 8
  %199 = call ptr @detoast_external_attr(ptr noundef %198)
  store ptr %199, ptr %2, align 8
  br label %245

200:                                              ; preds = %190, %184
  %201 = load ptr, ptr %2, align 8
  %202 = getelementptr inbounds nuw %struct.varattrib_1b, ptr %201, i32 0, i32 0
  %203 = load i8, ptr %202, align 1
  %204 = zext i8 %203 to i32
  %205 = and i32 %204, 3
  %206 = icmp eq i32 %205, 2
  br i1 %206, label %207, label %210

207:                                              ; preds = %200
  %208 = load ptr, ptr %2, align 8
  %209 = call ptr @toast_decompress_datum(ptr noundef %208)
  store ptr %209, ptr %2, align 8
  br label %244

210:                                              ; preds = %200
  %211 = load ptr, ptr %2, align 8
  %212 = getelementptr inbounds nuw %struct.varattrib_1b, ptr %211, i32 0, i32 0
  %213 = load i8, ptr %212, align 1
  %214 = zext i8 %213 to i32
  %215 = and i32 %214, 1
  %216 = icmp eq i32 %215, 1
  br i1 %216, label %217, label %243

217:                                              ; preds = %210
  call void @llvm.lifetime.start.p0(i64 8, ptr %7) #7
  %218 = load ptr, ptr %2, align 8
  %219 = getelementptr inbounds nuw %struct.varattrib_1b, ptr %218, i32 0, i32 0
  %220 = load i8, ptr %219, align 1
  %221 = zext i8 %220 to i32
  %222 = ashr i32 %221, 1
  %223 = and i32 %222, 127
  %224 = sext i32 %223 to i64
  %225 = sub i64 %224, 1
  store i64 %225, ptr %7, align 8
  call void @llvm.lifetime.start.p0(i64 8, ptr %8) #7
  %226 = load i64, ptr %7, align 8
  %227 = add i64 %226, 4
  store i64 %227, ptr %8, align 8
  call void @llvm.lifetime.start.p0(i64 8, ptr %9) #7
  %228 = load i64, ptr %8, align 8
  %229 = call ptr @palloc(i64 noundef %228)
  store ptr %229, ptr %9, align 8
  %230 = load i64, ptr %8, align 8
  %231 = trunc i64 %230 to i32
  %232 = shl i32 %231, 2
  %233 = load ptr, ptr %9, align 8
  %234 = getelementptr inbounds nuw %struct.anon, ptr %233, i32 0, i32 0
  store i32 %232, ptr %234, align 4
  %235 = load ptr, ptr %9, align 8
  %236 = getelementptr inbounds nuw %struct.anon, ptr %235, i32 0, i32 1
  %237 = getelementptr inbounds [0 x i8], ptr %236, i64 0, i64 0
  %238 = load ptr, ptr %2, align 8
  %239 = getelementptr inbounds nuw %struct.varattrib_1b, ptr %238, i32 0, i32 1
  %240 = getelementptr inbounds [0 x i8], ptr %239, i64 0, i64 0
  %241 = load i64, ptr %7, align 8
  call void @llvm.memcpy.p0.p0.i64(ptr align 4 %237, ptr align 1 %240, i64 %241, i1 false)
  %242 = load ptr, ptr %9, align 8
  store ptr %242, ptr %2, align 8
  call void @llvm.lifetime.end.p0(i64 8, ptr %9) #7
  call void @llvm.lifetime.end.p0(i64 8, ptr %8) #7
  call void @llvm.lifetime.end.p0(i64 8, ptr %7) #7
  br label %243

243:                                              ; preds = %217, %210
  br label %244

244:                                              ; preds = %243, %207
  br label %245

245:                                              ; preds = %244, %197
  br label %246

246:                                              ; preds = %245, %183
  br label %247

247:                                              ; preds = %246, %35
  %248 = load ptr, ptr %2, align 8
  ret ptr %248
}