; Function Attrs: nounwind uwtable
define dso_local ptr @detoast_attr(ptr noundef %0) local_unnamed_addr #0 {
  %2 = load i8, ptr %0, align 1
  %3 = icmp eq i8 %2, 1
  br i1 %3, label %4, label %82

4:                                                ; preds = %1
  %5 = getelementptr inbounds nuw i8, ptr %0, i64 1
  %6 = load i8, ptr %5, align 1
  switch i8 %6, label %77 [
    i8 18, label %7
    i8 1, label %23
  ]

7:                                                ; preds = %4
  %8 = tail call fastcc ptr @toast_fetch_datum(ptr noundef nonnull %0)
  %9 = load i8, ptr %8, align 1
  %10 = and i8 %9, 3
  %11 = icmp eq i8 %10, 2
  br i1 %11, label %12, label %toast_decompress_datum.exit58

12:                                               ; preds = %7
  %13 = getelementptr inbounds nuw i8, ptr %8, i64 4
  %14 = load i32, ptr %13, align 4
  %15 = lshr i32 %14, 30
  switch i32 %15, label %20 [
    i32 0, label %16
    i32 1, label %18
  ]

16:                                               ; preds = %12
  %17 = tail call ptr @pglz_decompress_datum(ptr noundef nonnull %8) #6
  br label %toast_decompress_datum.exit

18:                                               ; preds = %12
  %19 = tail call ptr @lz4_decompress_datum(ptr noundef nonnull %8) #6
  br label %toast_decompress_datum.exit

20:                                               ; preds = %12
  %21 = tail call zeroext i1 @errstart_cold(i32 noundef 21, ptr noundef null) #7
  tail call void @llvm.assume(i1 %21)
  %22 = tail call i32 (ptr, ...) @errmsg_internal(ptr noundef nonnull @.str.4, i32 noundef %15) #6
  tail call void @errfinish(ptr noundef nonnull @.str.1, i32 noundef 489, ptr noundef nonnull @__func__.toast_decompress_datum) #6
  unreachable

toast_decompress_datum.exit:                      ; preds = %16, %18
  %.0.i = phi ptr [ %19, %18 ], [ %17, %16 ]
  tail call void @pfree(ptr noundef nonnull %8) #6
  br label %toast_decompress_datum.exit58

23:                                               ; preds = %4
  %24 = getelementptr inbounds nuw i8, ptr %0, i64 2
  %.sroa.0.0.copyload = load ptr, ptr %24, align 1
  %25 = tail call ptr @detoast_attr(ptr noundef %.sroa.0.0.copyload)
  %26 = icmp eq ptr %25, %.sroa.0.0.copyload
  br i1 %26, label %27, label %toast_decompress_datum.exit58

27:                                               ; preds = %23
  %28 = load i8, ptr %25, align 1
  %29 = zext i8 %28 to i32
  %30 = icmp eq i8 %28, 1
  br i1 %30, label %31, label %40

31:                                               ; preds = %27
  %32 = getelementptr inbounds nuw i8, ptr %25, i64 1
  %33 = load i8, ptr %32, align 1
  %34 = icmp eq i8 %33, 1
  %35 = and i8 %33, -2
  %36 = icmp eq i8 %35, 2
  %or.cond = or i1 %34, %36
  %37 = icmp eq i8 %33, 18
  %38 = select i1 %37, i64 18, i64 2
  %39 = select i1 %or.cond, i64 10, i64 %38
  br label %50

40:                                               ; preds = %27
  %41 = and i32 %29, 1
  %.not52 = icmp eq i32 %41, 0
  br i1 %.not52, label %44, label %42

42:                                               ; preds = %40
  %43 = lshr i32 %29, 1
  br label %47

44:                                               ; preds = %40
  %45 = load i32, ptr %25, align 4
  %46 = lshr i32 %45, 2
  br label %47

47:                                               ; preds = %44, %42
  %48 = phi i32 [ %43, %42 ], [ %46, %44 ]
  %49 = zext nneg i32 %48 to i64
  br label %50

50:                                               ; preds = %47, %31
  %51 = phi i64 [ %39, %31 ], [ %49, %47 ]
  %52 = tail call ptr @palloc(i64 noundef %51) #6
  %53 = load i8, ptr %25, align 1
  %54 = zext i8 %53 to i32
  %55 = icmp eq i8 %53, 1
  br i1 %55, label %56, label %65

56:                                               ; preds = %50
  %57 = getelementptr inbounds nuw i8, ptr %25, i64 1
  %58 = load i8, ptr %57, align 1
  %59 = icmp eq i8 %58, 1
  %60 = and i8 %58, -2
  %61 = icmp eq i8 %60, 2
  %or.cond56 = or i1 %59, %61
  %62 = icmp eq i8 %58, 18
  %63 = select i1 %62, i64 18, i64 2
  %64 = select i1 %or.cond56, i64 10, i64 %63
  br label %75

65:                                               ; preds = %50
  %66 = and i32 %54, 1
  %.not53 = icmp eq i32 %66, 0
  br i1 %.not53, label %69, label %67

67:                                               ; preds = %65
  %68 = lshr i32 %54, 1
  br label %72

69:                                               ; preds = %65
  %70 = load i32, ptr %25, align 4
  %71 = lshr i32 %70, 2
  br label %72

72:                                               ; preds = %69, %67
  %73 = phi i32 [ %68, %67 ], [ %71, %69 ]
  %74 = zext nneg i32 %73 to i64
  br label %75

75:                                               ; preds = %72, %56
  %76 = phi i64 [ %64, %56 ], [ %74, %72 ]
  tail call void @llvm.memcpy.p0.p0.i64(ptr align 1 %52, ptr nonnull align 1 %25, i64 %76, i1 false)
  br label %toast_decompress_datum.exit58

77:                                               ; preds = %4
  %78 = and i8 %6, -2
  %79 = icmp eq i8 %78, 2
  br i1 %79, label %80, label %.thread61

80:                                               ; preds = %77
  %81 = tail call ptr @detoast_external_attr(ptr noundef nonnull %0)
  br label %toast_decompress_datum.exit58

82:                                               ; preds = %1
  %83 = zext i8 %2 to i32
  %84 = and i32 %83, 3
  %85 = icmp eq i32 %84, 2
  br i1 %85, label %86, label %97

86:                                               ; preds = %82
  %87 = getelementptr inbounds nuw i8, ptr %0, i64 4
  %88 = load i32, ptr %87, align 4
  %89 = lshr i32 %88, 30
  switch i32 %89, label %94 [
    i32 0, label %90
    i32 1, label %92
  ]

90:                                               ; preds = %86
  %91 = tail call ptr @pglz_decompress_datum(ptr noundef nonnull %0) #6
  br label %toast_decompress_datum.exit58

92:                                               ; preds = %86
  %93 = tail call ptr @lz4_decompress_datum(ptr noundef nonnull %0) #6
  br label %toast_decompress_datum.exit58

94:                                               ; preds = %86
  %95 = tail call zeroext i1 @errstart_cold(i32 noundef 21, ptr noundef null) #7
  tail call void @llvm.assume(i1 %95)
  %96 = tail call i32 (ptr, ...) @errmsg_internal(ptr noundef nonnull @.str.4, i32 noundef %89) #6
  tail call void @errfinish(ptr noundef nonnull @.str.1, i32 noundef 489, ptr noundef nonnull @__func__.toast_decompress_datum) #6
  unreachable

97:                                               ; preds = %82
  %98 = and i32 %83, 1
  %.not = icmp eq i32 %98, 0
  br i1 %.not, label %toast_decompress_datum.exit58, label %.thread61

.thread61:                                        ; preds = %77, %97
  %99 = phi i32 [ %83, %97 ], [ 1, %77 ]
  %100 = lshr i32 %99, 1
  %101 = zext nneg i32 %100 to i64
  %102 = add nsw i64 %101, -1
  %103 = add nuw nsw i64 %101, 3
  %104 = tail call ptr @palloc(i64 noundef %103) #6
  %105 = trunc nuw nsw i64 %103 to i32
  %106 = shl nuw nsw i32 %105, 2
  store i32 %106, ptr %104, align 4
  %107 = getelementptr inbounds nuw i8, ptr %104, i64 4
  %108 = getelementptr inbounds nuw i8, ptr %0, i64 1
  tail call void @llvm.memcpy.p0.p0.i64(ptr nonnull align 4 %107, ptr nonnull align 1 %108, i64 %102, i1 false)
  br label %toast_decompress_datum.exit58

toast_decompress_datum.exit58:                    ; preds = %92, %90, %23, %75, %.thread61, %97, %80, %7, %toast_decompress_datum.exit
  %.0 = phi ptr [ %.0.i, %toast_decompress_datum.exit ], [ %8, %7 ], [ %81, %80 ], [ %104, %.thread61 ], [ %0, %97 ], [ %52, %75 ], [ %25, %23 ], [ %93, %92 ], [ %91, %90 ]
  ret ptr %.0
}